target datalayout = "e-m:e-p270:32:32-p271:32:32-p272:64:64-i64:64-i128:128-f80:128-n8:16:32:64-S128"
target triple = "x86_64-pc-linux-gnu"

%struct.b2BodyId = type { i32, i16, i16 }
%struct.b2JointId = type { i32, i16, i16 }
%class.Car = type <{ %struct.b2BodyId, %struct.b2BodyId, %struct.b2BodyId, %struct.b2JointId, %struct.b2JointId, i8, [3 x i8] }>

; Function Attrs: mustprogress uwtable
define dso_local void @_ZN3Car15SetDampingRadioEf(ptr noundef nonnull align 4 dereferenceable(41) %0, float noundef %1) #6 align 2 {
  %3 = alloca ptr, align 8
  %4 = alloca float, align 4
  %5 = alloca %struct.b2JointId, align 4
  %6 = alloca %struct.b2JointId, align 4
  store ptr %0, ptr %3, align 8, !tbaa !4
  store float %1, ptr %4, align 4, !tbaa !25
  %7 = load ptr, ptr %3, align 8
  %8 = getelementptr inbounds nuw %class.Car, ptr %7, i32 0, i32 3
  call void @llvm.memcpy.p0.p0.i64(ptr align 4 %5, ptr align 4 %8, i64 8, i1 false), !tbaa.struct !15
  %9 = load float, ptr %4, align 4, !tbaa !25
  %10 = load i64, ptr %5, align 4
  call void @b2WheelJoint_SetSpringDampingRatio(i64 %10, float noundef %9)
  %11 = getelementptr inbounds nuw %class.Car, ptr %7, i32 0, i32 4
  call void @llvm.memcpy.p0.p0.i64(ptr align 4 %6, ptr align 4 %11, i64 8, i1 false), !tbaa.struct !15
  %12 = load float, ptr %4, align 4, !tbaa !25
  %13 = load i64, ptr %6, align 4
  call void @b2WheelJoint_SetSpringDampingRatio(i64 %13, float noundef %12)
  ret void
}